target datalayout = "e-m:e-p270:32:32-p271:32:32-p272:64:64-i64:64-i128:128-f80:128-n8:16:32:64-S128"
target triple = "x86_64-pc-linux-gnu"

%struct.test_fixture = type { ptr, ptr, ptr, ptr, ptr, ptr, i32, ptr, ptr, ptr, i32, i32, i32 }

@endentity1 = internal global ptr null, align 8
@endentity2 = internal global ptr null, align 8
@root = internal global ptr null, align 8
@intermediate = internal global ptr null, align 8
@.str.14 = private unnamed_addr constant [35 x i8] c"../openssl/test/cmp_protect_test.c\00", align 1
@.str.60 = private unnamed_addr constant [16 x i8] c"test_X509_STORE\00", align 1
@.str.88 = private unnamed_addr constant [36 x i8] c"fixture->certs = sk_X509_new_null()\00", align 1
@.str.102 = private unnamed_addr constant [45 x i8] c"fixture->chain = sk_X509_dup(fixture->certs)\00", align 1

; Function Attrs: nounwind uwtable
define internal void @tear_down(ptr noundef %0) #0 {
  %2 = alloca ptr, align 8
  store ptr %0, ptr %2, align 8, !tbaa !19
  %3 = load ptr, ptr %2, align 8, !tbaa !19
  %4 = icmp ne ptr %3, null
  br i1 %4, label %5, label %27

5:                                                ; preds = %1
  %6 = load ptr, ptr %2, align 8, !tbaa !19
  %7 = getelementptr inbounds nuw %struct.test_fixture, ptr %6, i32 0, i32 1
  %8 = load ptr, ptr %7, align 8, !tbaa !40
  call void @OSSL_CMP_CTX_free(ptr noundef %8)
  %9 = load ptr, ptr %2, align 8, !tbaa !19
  %10 = getelementptr inbounds nuw %struct.test_fixture, ptr %9, i32 0, i32 2
  %11 = load ptr, ptr %10, align 8, !tbaa !23
  call void @OSSL_CMP_MSG_free(ptr noundef %11)
  %12 = load ptr, ptr %2, align 8, !tbaa !19
  %13 = getelementptr inbounds nuw %struct.test_fixture, ptr %12, i32 0, i32 3
  %14 = load ptr, ptr %13, align 8, !tbaa !51
  call void @OSSL_CMP_PKISI_free(ptr noundef %14)
  %15 = load ptr, ptr %2, align 8, !tbaa !19
  %16 = getelementptr inbounds nuw %struct.test_fixture, ptr %15, i32 0, i32 5
  %17 = load ptr, ptr %16, align 8, !tbaa !52
  call void @CRYPTO_free(ptr noundef %17, ptr noundef @.str.14, i32 noundef 46)
  %18 = load ptr, ptr %2, align 8, !tbaa !19
  %19 = getelementptr inbounds nuw %struct.test_fixture, ptr %18, i32 0, i32 8
  %20 = load ptr, ptr %19, align 8, !tbaa !47
  %21 = call ptr @ossl_check_X509_sk_type(ptr noundef %20)
  call void @OPENSSL_sk_free(ptr noundef %21)
  %22 = load ptr, ptr %2, align 8, !tbaa !19
  %23 = getelementptr inbounds nuw %struct.test_fixture, ptr %22, i32 0, i32 9
  %24 = load ptr, ptr %23, align 8, !tbaa !48
  %25 = call ptr @ossl_check_X509_sk_type(ptr noundef %24)
  call void @OPENSSL_sk_free(ptr noundef %25)
  %26 = load ptr, ptr %2, align 8, !tbaa !19
  call void @CRYPTO_free(ptr noundef %26, ptr noundef @.str.14, i32 noundef 50)
  br label %27

27:                                               ; preds = %5, %1
  ret void
}

; Function Attrs: inlinehint nounwind uwtable
define internal ptr @ossl_check_const_X509_sk_type(ptr noundef %0) #3 {
  %2 = alloca ptr, align 8
  store ptr %0, ptr %2, align 8, !tbaa !54
  %3 = load ptr, ptr %2, align 8, !tbaa !54
  ret ptr %3
}

; Function Attrs: inlinehint nounwind uwtable
define internal ptr @ossl_check_X509_type(ptr noundef %0) #3 {
  %2 = alloca ptr, align 8
  store ptr %0, ptr %2, align 8, !tbaa !11
  %3 = load ptr, ptr %2, align 8, !tbaa !11
  ret ptr %3
}

; Function Attrs: inlinehint nounwind uwtable
define internal ptr @ossl_check_X509_sk_type(ptr noundef %0) #3 {
  %2 = alloca ptr, align 8
  store ptr %0, ptr %2, align 8, !tbaa !54
  %3 = load ptr, ptr %2, align 8, !tbaa !54
  ret ptr %3
}

; Function Attrs: nounwind uwtable
define internal i32 @test_X509_STORE() #0 {
  %1 = alloca i32, align 4
  %2 = alloca ptr, align 8
  %3 = alloca i32, align 4
  %4 = alloca i32, align 4
  call void @llvm.lifetime.start.p0(i64 8, ptr %2) #5
  %5 = call ptr @set_up(ptr noundef @.str.60)
  store ptr %5, ptr %2, align 8, !tbaa !19
  call void @llvm.lifetime.start.p0(i64 4, ptr %3) #5
  store i32 0, ptr %3, align 4, !tbaa !21
  %6 = load ptr, ptr %2, align 8, !tbaa !19
  %7 = icmp eq ptr %6, null
  br i1 %7, label %8, label %9

8:                                                ; preds = %0
  store i32 0, ptr %1, align 4
  store i32 1, ptr %4, align 4
  br label %74

9:                                                ; preds = %0
  %10 = load ptr, ptr %2, align 8, !tbaa !19
  %11 = getelementptr inbounds nuw %struct.test_fixture, ptr %10, i32 0, i32 11
  store i32 0, ptr %11, align 4, !tbaa !49
  %12 = call ptr @OPENSSL_sk_new_null()
  %13 = load ptr, ptr %2, align 8, !tbaa !19
  %14 = getelementptr inbounds nuw %struct.test_fixture, ptr %13, i32 0, i32 8
  store ptr %12, ptr %14, align 8, !tbaa !47
  %15 = call i32 @test_ptr(ptr noundef @.str.14, i32 noundef 494, ptr noundef @.str.88, ptr noundef %12)
  %16 = icmp ne i32 %15, 0
  br i1 %16, label %17, label %63

17:                                               ; preds = %9
  %18 = load ptr, ptr %2, align 8, !tbaa !19
  %19 = getelementptr inbounds nuw %struct.test_fixture, ptr %18, i32 0, i32 8
  %20 = load ptr, ptr %19, align 8, !tbaa !47
  %21 = call ptr @ossl_check_X509_sk_type(ptr noundef %20)
  %22 = load ptr, ptr @endentity1, align 8, !tbaa !11
  %23 = call ptr @ossl_check_X509_type(ptr noundef %22)
  %24 = call i32 @OPENSSL_sk_push(ptr noundef %21, ptr noundef %23)
  %25 = icmp ne i32 %24, 0
  br i1 %25, label %26, label %63

26:                                               ; preds = %17
  %27 = load ptr, ptr %2, align 8, !tbaa !19
  %28 = getelementptr inbounds nuw %struct.test_fixture, ptr %27, i32 0, i32 8
  %29 = load ptr, ptr %28, align 8, !tbaa !47
  %30 = call ptr @ossl_check_X509_sk_type(ptr noundef %29)
  %31 = load ptr, ptr @endentity2, align 8, !tbaa !11
  %32 = call ptr @ossl_check_X509_type(ptr noundef %31)
  %33 = call i32 @OPENSSL_sk_push(ptr noundef %30, ptr noundef %32)
  %34 = icmp ne i32 %33, 0
  br i1 %34, label %35, label %63

35:                                               ; preds = %26
  %36 = load ptr, ptr %2, align 8, !tbaa !19
  %37 = getelementptr inbounds nuw %struct.test_fixture, ptr %36, i32 0, i32 8
  %38 = load ptr, ptr %37, align 8, !tbaa !47
  %39 = call ptr @ossl_check_X509_sk_type(ptr noundef %38)
  %40 = load ptr, ptr @root, align 8, !tbaa !11
  %41 = call ptr @ossl_check_X509_type(ptr noundef %40)
  %42 = call i32 @OPENSSL_sk_push(ptr noundef %39, ptr noundef %41)
  %43 = icmp ne i32 %42, 0
  br i1 %43, label %44, label %63

44:                                               ; preds = %35
  %45 = load ptr, ptr %2, align 8, !tbaa !19
  %46 = getelementptr inbounds nuw %struct.test_fixture, ptr %45, i32 0, i32 8
  %47 = load ptr, ptr %46, align 8, !tbaa !47
  %48 = call ptr @ossl_check_X509_sk_type(ptr noundef %47)
  %49 = load ptr, ptr @intermediate, align 8, !tbaa !11
  %50 = call ptr @ossl_check_X509_type(ptr noundef %49)
  %51 = call i32 @OPENSSL_sk_push(ptr noundef %48, ptr noundef %50)
  %52 = icmp ne i32 %51, 0
  br i1 %52, label %53, label %63

53:                                               ; preds = %44
  %54 = load ptr, ptr %2, align 8, !tbaa !19
  %55 = getelementptr inbounds nuw %struct.test_fixture, ptr %54, i32 0, i32 8
  %56 = load ptr, ptr %55, align 8, !tbaa !47
  %57 = call ptr @ossl_check_const_X509_sk_type(ptr noundef %56)
  %58 = call ptr @OPENSSL_sk_dup(ptr noundef %57)
  %59 = load ptr, ptr %2, align 8, !tbaa !19
  %60 = getelementptr inbounds nuw %struct.test_fixture, ptr %59, i32 0, i32 9
  store ptr %58, ptr %60, align 8, !tbaa !48
  %61 = call i32 @test_ptr(ptr noundef @.str.14, i32 noundef 499, ptr noundef @.str.102, ptr noundef %58)
  %62 = icmp ne i32 %61, 0
  br i1 %62, label %65, label %63

63:                                               ; preds = %53, %44, %35, %26, %17, %9
  %64 = load ptr, ptr %2, align 8, !tbaa !19
  call void @tear_down(ptr noundef %64)
  store ptr null, ptr %2, align 8, !tbaa !19
  br label %65

65:                                               ; preds = %63, %53
  %66 = load ptr, ptr %2, align 8, !tbaa !19
  %67 = icmp ne ptr %66, null
  br i1 %67, label %68, label %72

68:                                               ; preds = %65
  %69 = load ptr, ptr %2, align 8, !tbaa !19
  %70 = call i32 @execute_X509_STORE_test(ptr noundef %69)
  store i32 %70, ptr %3, align 4, !tbaa !21
  %71 = load ptr, ptr %2, align 8, !tbaa !19
  call void @tear_down(ptr noundef %71)
  br label %72

72:                                               ; preds = %68, %65
  %73 = load i32, ptr %3, align 4, !tbaa !21
  store i32 %73, ptr %1, align 4
  store i32 1, ptr %4, align 4
  br label %74

74:                                               ; preds = %72, %8
  call void @llvm.lifetime.end.p0(i64 4, ptr %3) #5
  call void @llvm.lifetime.end.p0(i64 8, ptr %2) #5
  %75 = load i32, ptr %1, align 4
  ret i32 %75
}