; Function Attrs: nounwind uwtable
define internal range(i32 0, 2) i32 @test_X509_STORE() #0 {
  %1 = tail call fastcc ptr @set_up(ptr noundef nonnull @.str.60)
  %2 = icmp eq ptr %1, null
  br i1 %2, label %49, label %3

3:                                                ; preds = %0
  %4 = getelementptr inbounds nuw i8, ptr %1, i64 84
  store i32 0, ptr %4, align 4, !tbaa !46
  %5 = tail call ptr @OPENSSL_sk_new_null() #5
  %6 = getelementptr inbounds nuw i8, ptr %1, i64 64
  store ptr %5, ptr %6, align 8, !tbaa !39
  %7 = tail call i32 @test_ptr(ptr noundef nonnull @.str.14, i32 noundef 494, ptr noundef nonnull @.str.88, ptr noundef %5) #5
  %.not = icmp eq i32 %7, 0
  br i1 %.not, label %.thread, label %8

8:                                                ; preds = %3
  %9 = load ptr, ptr %6, align 8, !tbaa !39
  %10 = load ptr, ptr @endentity1, align 8, !tbaa !11
  %11 = tail call i32 @OPENSSL_sk_push(ptr noundef %9, ptr noundef %10) #5
  %.not17 = icmp eq i32 %11, 0
  br i1 %.not17, label %.thread, label %12

12:                                               ; preds = %8
  %13 = load ptr, ptr %6, align 8, !tbaa !39
  %14 = load ptr, ptr @endentity2, align 8, !tbaa !11
  %15 = tail call i32 @OPENSSL_sk_push(ptr noundef %13, ptr noundef %14) #5
  %.not18 = icmp eq i32 %15, 0
  br i1 %.not18, label %.thread, label %16

16:                                               ; preds = %12
  %17 = load ptr, ptr %6, align 8, !tbaa !39
  %18 = load ptr, ptr @root, align 8, !tbaa !11
  %19 = tail call i32 @OPENSSL_sk_push(ptr noundef %17, ptr noundef %18) #5
  %.not19 = icmp eq i32 %19, 0
  br i1 %.not19, label %.thread, label %20

20:                                               ; preds = %16
  %21 = load ptr, ptr %6, align 8, !tbaa !39
  %22 = load ptr, ptr @intermediate, align 8, !tbaa !11
  %23 = tail call i32 @OPENSSL_sk_push(ptr noundef %21, ptr noundef %22) #5
  %.not20 = icmp eq i32 %23, 0
  br i1 %.not20, label %.thread, label %24

24:                                               ; preds = %20
  %25 = load ptr, ptr %6, align 8, !tbaa !39
  %26 = tail call ptr @OPENSSL_sk_dup(ptr noundef %25) #5
  %27 = getelementptr inbounds nuw i8, ptr %1, i64 72
  store ptr %26, ptr %27, align 8, !tbaa !40
  %28 = tail call i32 @test_ptr(ptr noundef nonnull @.str.14, i32 noundef 499, ptr noundef nonnull @.str.102, ptr noundef %26) #5
  %.not21 = icmp eq i32 %28, 0
  br i1 %.not21, label %.thread, label %tear_down.exit24

.thread:                                          ; preds = %3, %8, %12, %16, %20, %24
  %29 = getelementptr inbounds nuw i8, ptr %1, i64 8
  %30 = load ptr, ptr %29, align 8, !tbaa !36
  tail call void @OSSL_CMP_CTX_free(ptr noundef %30) #5
  %31 = getelementptr inbounds nuw i8, ptr %1, i64 16
  %32 = load ptr, ptr %31, align 8, !tbaa !19
  tail call void @OSSL_CMP_MSG_free(ptr noundef %32) #5
  %33 = getelementptr inbounds nuw i8, ptr %1, i64 24
  %34 = load ptr, ptr %33, align 8, !tbaa !37
  tail call void @OSSL_CMP_PKISI_free(ptr noundef %34) #5
  %35 = getelementptr inbounds nuw i8, ptr %1, i64 40
  %36 = load ptr, ptr %35, align 8, !tbaa !38
  tail call void @CRYPTO_free(ptr noundef %36, ptr noundef nonnull @.str.14, i32 noundef 46) #5
  %37 = load ptr, ptr %6, align 8, !tbaa !39
  tail call void @OPENSSL_sk_free(ptr noundef %37) #5
  %38 = getelementptr inbounds nuw i8, ptr %1, i64 72
  br label %.sink.split

tear_down.exit24:                                 ; preds = %24
  %39 = tail call fastcc i32 @execute_X509_STORE_test(ptr noundef %1)
  %40 = getelementptr inbounds nuw i8, ptr %1, i64 8
  %41 = load ptr, ptr %40, align 8, !tbaa !36
  tail call void @OSSL_CMP_CTX_free(ptr noundef %41) #5
  %42 = getelementptr inbounds nuw i8, ptr %1, i64 16
  %43 = load ptr, ptr %42, align 8, !tbaa !19
  tail call void @OSSL_CMP_MSG_free(ptr noundef %43) #5
  %44 = getelementptr inbounds nuw i8, ptr %1, i64 24
  %45 = load ptr, ptr %44, align 8, !tbaa !37
  tail call void @OSSL_CMP_PKISI_free(ptr noundef %45) #5
  %46 = getelementptr inbounds nuw i8, ptr %1, i64 40
  %47 = load ptr, ptr %46, align 8, !tbaa !38
  tail call void @CRYPTO_free(ptr noundef %47, ptr noundef nonnull @.str.14, i32 noundef 46) #5
  %48 = load ptr, ptr %6, align 8, !tbaa !39
  tail call void @OPENSSL_sk_free(ptr noundef %48) #5
  br label %.sink.split

.sink.split:                                      ; preds = %tear_down.exit24, %.thread
  %.sink.in = phi ptr [ %38, %.thread ], [ %27, %tear_down.exit24 ]
  %.015.ph = phi i32 [ 0, %.thread ], [ %39, %tear_down.exit24 ]
  %.sink = load ptr, ptr %.sink.in, align 8, !tbaa !40
  tail call void @OPENSSL_sk_free(ptr noundef %.sink) #5
  tail call void @CRYPTO_free(ptr noundef nonnull %1, ptr noundef nonnull @.str.14, i32 noundef 50) #5
  br label %49

49:                                               ; preds = %.sink.split, %0
  %.015 = phi i32 [ 0, %0 ], [ %.015.ph, %.sink.split ]
  ret i32 %.015
}